; Function Attrs: mustprogress uwtable
define hidden noundef i32 @_ZN3smt24theory_special_relations15final_check_ploERNS0_8relationE(ptr nocapture noundef nonnull readonly align 8 dereferenceable(145) %this, ptr nocapture noundef nonnull readonly align 8 dereferenceable(552) %r) local_unnamed_addr #3 align 2 {
entry:
  %m_asserted_atoms = getelementptr inbounds i8, ptr %r, i64 40
  %m_find.i = getelementptr inbounds i8, ptr %r, i64 504
  br label %land.rhs

land.rhs:                                         ; preds = %for.inc, %entry
  %indvars.iv = phi i64 [ 0, %entry ], [ %indvars.iv.next, %for.inc ]
  %0 = load ptr, ptr %m_asserted_atoms, align 8
  %cmp.i = icmp eq ptr %0, null
  br i1 %cmp.i, label %_ZNK6vectorIPN3smt24theory_special_relations4atomELb0EjE4sizeEv.exit, label %if.end.i

if.end.i:                                         ; preds = %land.rhs
  %arrayidx.i = getelementptr inbounds i8, ptr %0, i64 -4
  %1 = load i32, ptr %arrayidx.i, align 4
  br label %_ZNK6vectorIPN3smt24theory_special_relations4atomELb0EjE4sizeEv.exit

_ZNK6vectorIPN3smt24theory_special_relations4atomELb0EjE4sizeEv.exit: ; preds = %land.rhs, %if.end.i
  %retval.0.i = phi i32 [ %1, %if.end.i ], [ 0, %land.rhs ]
  %2 = zext i32 %retval.0.i to i64
  %cmp2 = icmp ult i64 %indvars.iv, %2
  br i1 %cmp2, label %for.body, label %for.end

for.body:                                         ; preds = %_ZNK6vectorIPN3smt24theory_special_relations4atomELb0EjE4sizeEv.exit
  %arrayidx.i10 = getelementptr inbounds ptr, ptr %0, i64 %indvars.iv
  %3 = load ptr, ptr %arrayidx.i10, align 8
  %m_phase.i = getelementptr inbounds i8, ptr %3, i64 16
  %4 = load i8, ptr %m_phase.i, align 8
  %5 = and i8 %4, 1
  %tobool.i.not = icmp eq i8 %5, 0
  br i1 %tobool.i.not, label %land.lhs.true, label %for.inc

land.lhs.true:                                    ; preds = %for.body
  %m_v1.i = getelementptr inbounds i8, ptr %3, i64 20
  %6 = load i32, ptr %m_v1.i, align 4
  %7 = load ptr, ptr %m_find.i, align 8
  br label %while.body.i

while.body.i:                                     ; preds = %while.body.i, %land.lhs.true
  %v.addr.0.i = phi i32 [ %6, %land.lhs.true ], [ %8, %while.body.i ]
  %idxprom.i.i = zext i32 %v.addr.0.i to i64
  %arrayidx.i.i = getelementptr inbounds i32, ptr %7, i64 %idxprom.i.i
  %8 = load i32, ptr %arrayidx.i.i, align 4
  %cmp.i11 = icmp eq i32 %8, %v.addr.0.i
  br i1 %cmp.i11, label %_ZNK10union_findI22union_find_default_ctxS0_E4findEj.exit, label %while.body.i, !llvm.loop !14

_ZNK10union_findI22union_find_default_ctxS0_E4findEj.exit: ; preds = %while.body.i
  %m_v2.i = getelementptr inbounds i8, ptr %3, i64 24
  %9 = load i32, ptr %m_v2.i, align 8
  br label %while.body.i13

while.body.i13:                                   ; preds = %while.body.i13, %_ZNK10union_findI22union_find_default_ctxS0_E4findEj.exit
  %v.addr.0.i14 = phi i32 [ %9, %_ZNK10union_findI22union_find_default_ctxS0_E4findEj.exit ], [ %10, %while.body.i13 ]
  %idxprom.i.i15 = zext i32 %v.addr.0.i14 to i64
  %arrayidx.i.i16 = getelementptr inbounds i32, ptr %7, i64 %idxprom.i.i15
  %10 = load i32, ptr %arrayidx.i.i16, align 4
  %cmp.i17 = icmp eq i32 %10, %v.addr.0.i14
  br i1 %cmp.i17, label %_ZNK10union_findI22union_find_default_ctxS0_E4findEj.exit18, label %while.body.i13, !llvm.loop !14

_ZNK10union_findI22union_find_default_ctxS0_E4findEj.exit18: ; preds = %while.body.i13
  %cmp11 = icmp eq i32 %v.addr.0.i, %v.addr.0.i14
  br i1 %cmp11, label %if.then, label %for.inc

if.then:                                          ; preds = %_ZNK10union_findI22union_find_default_ctxS0_E4findEj.exit18
  %call.i = tail call noundef zeroext i1 @_ZN3smt24theory_special_relations4atom6enableEv(ptr noundef nonnull align 8 dereferenceable(36) %3)
  br i1 %call.i, label %for.inc, label %if.then.i

if.then.i:                                        ; preds = %if.then
  %m_relation.i.i = getelementptr inbounds i8, ptr %3, i64 8
  %11 = load ptr, ptr %m_relation.i.i, align 8
  %m_explanation.i.i = getelementptr inbounds i8, ptr %11, i64 544
  %12 = load ptr, ptr %m_explanation.i.i, align 8
  %tobool.not.i.i.i = icmp eq ptr %12, null
  br i1 %tobool.not.i.i.i, label %for.inc.thread, label %if.then.i.i.i

if.then.i.i.i:                                    ; preds = %if.then.i
  %arrayidx.i.i.i = getelementptr inbounds i8, ptr %12, i64 -4
  store i32 0, ptr %arrayidx.i.i.i, align 4
  br label %for.inc.thread

for.inc.thread:                                   ; preds = %if.then.i, %if.then.i.i.i
  %m_graph.i.i = getelementptr inbounds i8, ptr %11, i64 64
  tail call void @_ZN8dl_graphIN3smt24theory_special_relations7int_extEE19traverse_neg_cycle2INS1_8relationEEEvbRT_(ptr noundef nonnull align 8 dereferenceable(368) %m_graph.i.i, i1 noundef zeroext false, ptr noundef nonnull align 8 dereferenceable(552) %11)
  tail call void @_ZN3smt24theory_special_relations12set_conflictERNS0_8relationE(ptr noundef nonnull align 8 dereferenceable(145) %this, ptr noundef nonnull align 8 dereferenceable(552) %11)
  br label %for.end

for.inc:                                          ; preds = %if.then, %for.body, %_ZNK10union_findI22union_find_default_ctxS0_E4findEj.exit18
  %indvars.iv.next = add nuw nsw i64 %indvars.iv, 1
  br label %land.rhs, !llvm.loop !22

for.end:                                          ; preds = %_ZNK6vectorIPN3smt24theory_special_relations4atomELb0EjE4sizeEv.exit, %for.inc.thread
  %res.0.lcssa = phi i32 [ -1, %for.inc.thread ], [ 1, %_ZNK6vectorIPN3smt24theory_special_relations4atomELb0EjE4sizeEv.exit ]
  ret i32 %res.0.lcssa
}